; Function Attrs: mustprogress nounwind uwtable
define hidden void @_ZN12jumpXtndNode13eval_constantEP7Compile(ptr noundef nonnull align 8 dereferenceable(160) %0, ptr nocapture noundef readonly %1) unnamed_addr #3 align 2 {
  %3 = alloca %"class.ConstantTable::Constant", align 8
  %4 = getelementptr inbounds i8, ptr %1, i64 2288
  %5 = load ptr, ptr %4, align 8
  %6 = getelementptr inbounds i8, ptr %5, i64 632
  call void @_ZN13ConstantTable14add_jump_tableEP16MachConstantNode(ptr dead_on_unwind nonnull writable sret(%"class.ConstantTable::Constant") align 8 %3, ptr noundef nonnull align 8 dereferenceable(36) %6, ptr noundef nonnull %0) #23
  %7 = getelementptr inbounds i8, ptr %0, i64 72
  call void @llvm.memcpy.p0.p0.i64(ptr noundef nonnull align 8 dereferenceable(25) %7, ptr noundef nonnull align 8 dereferenceable(25) %3, i64 25, i1 false)
  ret void
}